target datalayout = "e-m:e-p270:32:32-p271:32:32-p272:64:64-i64:64-i128:128-f80:128-n8:16:32:64-S128"
target triple = "x86_64-pc-linux-gnu"

%struct.point_t = type { float, float }
%struct.dt_lut_t = type { ptr, ptr, ptr, ptr, ptr, ptr, ptr, ptr, ptr, ptr, ptr, ptr, ptr, ptr, ptr, ptr, ptr, %struct.image_t, %struct.image_t, ptr, ptr, ptr, ptr, ptr }
%struct.image_t = type { ptr, ptr, ptr, i32, i32, ptr, float, i32, i32, float, [4 x %struct.point_t], ptr, i32 }

; Function Attrs: nounwind uwtable
define internal i32 @open_source_image(ptr noundef %0, ptr noundef %1) #0 {
  %3 = alloca ptr, align 8
  %4 = alloca ptr, align 8
  %5 = alloca i32, align 4
  store ptr %0, ptr %3, align 8, !tbaa !14
  store ptr %1, ptr %4, align 8, !tbaa !29
  call void @llvm.lifetime.start.p0(i64 4, ptr %5) #15
  %6 = load ptr, ptr %3, align 8, !tbaa !14
  %7 = getelementptr inbounds nuw %struct.dt_lut_t, ptr %6, i32 0, i32 17
  %8 = load ptr, ptr %4, align 8, !tbaa !29
  %9 = call i32 @open_image(ptr noundef %7, ptr noundef %8)
  store i32 %9, ptr %5, align 4, !tbaa !7
  %10 = load ptr, ptr %3, align 8, !tbaa !14
  %11 = getelementptr inbounds nuw %struct.dt_lut_t, ptr %10, i32 0, i32 2
  %12 = load ptr, ptr %11, align 8, !tbaa !40
  %13 = load i32, ptr %5, align 4, !tbaa !7
  call void @gtk_widget_set_sensitive(ptr noundef %12, i32 noundef %13)
  %14 = load i32, ptr %5, align 4, !tbaa !7
  %15 = icmp ne i32 %14, 0
  br i1 %15, label %22, label %16

16:                                               ; preds = %2
  %17 = load ptr, ptr %3, align 8, !tbaa !14
  %18 = getelementptr inbounds nuw %struct.dt_lut_t, ptr %17, i32 0, i32 1
  %19 = load ptr, ptr %18, align 8, !tbaa !46
  %20 = call i64 @gtk_file_chooser_get_type() #18
  %21 = call ptr @g_type_check_instance_cast(ptr noundef %19, i64 noundef %20)
  call void @gtk_file_chooser_unselect_all(ptr noundef %21)
  br label %22

22:                                               ; preds = %16, %2
  %23 = load ptr, ptr %3, align 8, !tbaa !14
  %24 = getelementptr inbounds nuw %struct.dt_lut_t, ptr %23, i32 0, i32 17
  %25 = getelementptr inbounds nuw %struct.image_t, ptr %24, i32 0, i32 0
  %26 = load ptr, ptr %25, align 8, !tbaa !76
  call void @gtk_widget_queue_draw(ptr noundef %26)
  %27 = load i32, ptr %5, align 4, !tbaa !7
  call void @llvm.lifetime.end.p0(i64 4, ptr %5) #15
  ret i32 %27
}

; Function Attrs: nounwind uwtable
define internal void @source_image_changed_callback(ptr noundef %0, ptr noundef %1) #0 {
  %3 = alloca ptr, align 8
  %4 = alloca ptr, align 8
  %5 = alloca ptr, align 8
  %6 = alloca ptr, align 8
  store ptr %0, ptr %3, align 8, !tbaa !92
  store ptr %1, ptr %4, align 8, !tbaa !62
  call void @llvm.lifetime.start.p0(i64 8, ptr %5) #15
  %7 = load ptr, ptr %4, align 8, !tbaa !62
  store ptr %7, ptr %5, align 8, !tbaa !14
  call void @llvm.lifetime.start.p0(i64 8, ptr %6) #15
  %8 = load ptr, ptr %3, align 8, !tbaa !92
  %9 = call i64 @gtk_file_chooser_get_type() #18
  %10 = call ptr @g_type_check_instance_cast(ptr noundef %8, i64 noundef %9)
  %11 = call ptr @gtk_file_chooser_get_filename(ptr noundef %10)
  store ptr %11, ptr %6, align 8, !tbaa !29
  %12 = load ptr, ptr %5, align 8, !tbaa !14
  %13 = load ptr, ptr %6, align 8, !tbaa !29
  %14 = call i32 @open_source_image(ptr noundef %12, ptr noundef %13)
  %15 = load ptr, ptr %6, align 8, !tbaa !29
  call void @g_free(ptr noundef %15)
  call void @llvm.lifetime.end.p0(i64 8, ptr %6) #15
  call void @llvm.lifetime.end.p0(i64 8, ptr %5) #15
  ret void
}