; Function Attrs: nounwind uwtable
define internal void @source_image_changed_callback(ptr noundef %0, ptr noundef %1) #0 {
  %3 = tail call i64 @gtk_file_chooser_get_type() #28
  %4 = tail call ptr @g_type_check_instance_cast(ptr noundef %0, i64 noundef %3) #24
  %5 = tail call ptr @gtk_file_chooser_get_filename(ptr noundef %4) #24
  %6 = getelementptr inbounds nuw i8, ptr %1, i64 136
  %7 = tail call fastcc i32 @open_image(ptr noundef nonnull %6, ptr noundef %5)
  %8 = getelementptr inbounds nuw i8, ptr %1, i64 16
  %9 = load ptr, ptr %8, align 8, !tbaa !41
  tail call void @gtk_widget_set_sensitive(ptr noundef %9, i32 noundef %7) #24
  %.not.i = icmp eq i32 %7, 0
  br i1 %.not.i, label %10, label %open_source_image.exit

10:                                               ; preds = %2
  %11 = getelementptr inbounds nuw i8, ptr %1, i64 8
  %12 = load ptr, ptr %11, align 8, !tbaa !40
  %13 = tail call ptr @g_type_check_instance_cast(ptr noundef %12, i64 noundef %3) #24
  tail call void @gtk_file_chooser_unselect_all(ptr noundef %13) #24
  br label %open_source_image.exit

open_source_image.exit:                           ; preds = %2, %10
  %14 = load ptr, ptr %6, align 8, !tbaa !39
  tail call void @gtk_widget_queue_draw(ptr noundef %14) #24
  tail call void @g_free(ptr noundef %5) #24
  ret void
}